target datalayout = "e-m:e-p270:32:32-p271:32:32-p272:64:64-i64:64-i128:128-f80:128-n8:16:32:64-S128"
target triple = "x86_64-pc-linux-gnu"

%struct._dfilter_loc = type { i64, i64 }
%struct.stnode = type { ptr, ptr, ptr, ptr, ptr, %struct._dfilter_loc, i16 }

; Function Attrs: nounwind null_pointer_is_valid sspstrong uwtable
define { i64, i64 } @stnode_location(ptr noundef %0) #2 {
  %2 = alloca %struct._dfilter_loc, align 8
  %3 = alloca ptr, align 8
  store ptr %0, ptr %3, align 8
  %4 = load ptr, ptr %3, align 8
  %5 = getelementptr inbounds nuw %struct.stnode, ptr %4, i32 0, i32 5
  call void @llvm.memcpy.p0.p0.i64(ptr align 8 %2, ptr align 8 %5, i64 16, i1 false)
  %6 = load { i64, i64 }, ptr %2, align 8
  ret { i64, i64 } %6
}

; Function Attrs: nounwind null_pointer_is_valid sspstrong uwtable
define hidden void @stnode_merge_location(ptr noundef %0, ptr noundef %1, ptr noundef %2) #2 {
  %4 = alloca ptr, align 8
  %5 = alloca ptr, align 8
  %6 = alloca ptr, align 8
  %7 = alloca %struct._dfilter_loc, align 8
  %8 = alloca %struct._dfilter_loc, align 8
  %9 = alloca %struct._dfilter_loc, align 8
  %10 = alloca %struct._dfilter_loc, align 8
  %11 = alloca %struct._dfilter_loc, align 8
  store ptr %0, ptr %4, align 8
  store ptr %1, ptr %5, align 8
  store ptr %2, ptr %6, align 8
  call void @llvm.lifetime.start.p0(i64 16, ptr %7) #9
  call void @llvm.lifetime.start.p0(i64 16, ptr %8) #9
  call void @llvm.lifetime.start.p0(i64 16, ptr %9) #9
  call void @llvm.lifetime.start.p0(i64 16, ptr %10) #9
  %12 = load ptr, ptr %5, align 8
  %13 = call { i64, i64 } @stnode_location(ptr noundef %12)
  %14 = getelementptr inbounds nuw { i64, i64 }, ptr %10, i32 0, i32 0
  %15 = extractvalue { i64, i64 } %13, 0
  store i64 %15, ptr %14, align 8
  %16 = getelementptr inbounds nuw { i64, i64 }, ptr %10, i32 0, i32 1
  %17 = extractvalue { i64, i64 } %13, 1
  store i64 %17, ptr %16, align 8
  call void @llvm.memcpy.p0.p0.i64(ptr align 8 %8, ptr align 8 %10, i64 16, i1 false)
  call void @llvm.lifetime.end.p0(i64 16, ptr %10) #9
  call void @llvm.memcpy.p0.p0.i64(ptr align 8 %7, ptr align 8 %8, i64 16, i1 false)
  call void @llvm.lifetime.start.p0(i64 16, ptr %11) #9
  %18 = load ptr, ptr %6, align 8
  %19 = call { i64, i64 } @stnode_location(ptr noundef %18)
  %20 = getelementptr inbounds nuw { i64, i64 }, ptr %11, i32 0, i32 0
  %21 = extractvalue { i64, i64 } %19, 0
  store i64 %21, ptr %20, align 8
  %22 = getelementptr inbounds nuw { i64, i64 }, ptr %11, i32 0, i32 1
  %23 = extractvalue { i64, i64 } %19, 1
  store i64 %23, ptr %22, align 8
  call void @llvm.memcpy.p0.p0.i64(ptr align 8 %9, ptr align 8 %11, i64 16, i1 false)
  call void @llvm.lifetime.end.p0(i64 16, ptr %11) #9
  %24 = getelementptr inbounds nuw %struct._dfilter_loc, ptr %9, i32 0, i32 0
  %25 = load i64, ptr %24, align 8
  %26 = icmp sge i64 %25, 0
  br i1 %26, label %27, label %34

27:                                               ; preds = %3
  %28 = getelementptr inbounds nuw %struct._dfilter_loc, ptr %9, i32 0, i32 0
  %29 = load i64, ptr %28, align 8
  %30 = getelementptr inbounds nuw %struct._dfilter_loc, ptr %7, i32 0, i32 0
  %31 = load i64, ptr %30, align 8
  %32 = icmp sgt i64 %29, %31
  br i1 %32, label %33, label %34

33:                                               ; preds = %27
  call void @llvm.memcpy.p0.p0.i64(ptr align 8 %8, ptr align 8 %9, i64 16, i1 false)
  br label %34

34:                                               ; preds = %33, %27, %3
  %35 = getelementptr inbounds nuw %struct._dfilter_loc, ptr %7, i32 0, i32 0
  %36 = load i64, ptr %35, align 8
  %37 = load ptr, ptr %4, align 8
  %38 = getelementptr inbounds nuw %struct.stnode, ptr %37, i32 0, i32 5
  %39 = getelementptr inbounds nuw %struct._dfilter_loc, ptr %38, i32 0, i32 0
  store i64 %36, ptr %39, align 8
  %40 = getelementptr inbounds nuw %struct._dfilter_loc, ptr %8, i32 0, i32 0
  %41 = load i64, ptr %40, align 8
  %42 = getelementptr inbounds nuw %struct._dfilter_loc, ptr %7, i32 0, i32 0
  %43 = load i64, ptr %42, align 8
  %44 = sub i64 %41, %43
  %45 = getelementptr inbounds nuw %struct._dfilter_loc, ptr %8, i32 0, i32 1
  %46 = load i64, ptr %45, align 8
  %47 = add i64 %44, %46
  %48 = load ptr, ptr %4, align 8
  %49 = getelementptr inbounds nuw %struct.stnode, ptr %48, i32 0, i32 5
  %50 = getelementptr inbounds nuw %struct._dfilter_loc, ptr %49, i32 0, i32 1
  store i64 %47, ptr %50, align 8
  call void @llvm.lifetime.end.p0(i64 16, ptr %9) #9
  call void @llvm.lifetime.end.p0(i64 16, ptr %8) #9
  call void @llvm.lifetime.end.p0(i64 16, ptr %7) #9
  ret void
}