; Function Attrs: mustprogress nofree norecurse nosync nounwind null_pointer_is_valid sspstrong willreturn memory(argmem: readwrite) uwtable
define hidden void @stnode_merge_location(ptr noundef writeonly captures(none) initializes((40, 56)) %0, ptr noundef readonly captures(none) %1, ptr noundef readonly captures(none) %2) local_unnamed_addr #10 {
  %4 = getelementptr inbounds nuw i8, ptr %1, i64 40
  %.sroa.0.0.copyload.i = load i64, ptr %4, align 8
  %.sroa.2.0..sroa_idx.i = getelementptr inbounds nuw i8, ptr %1, i64 48
  %.sroa.2.0.copyload.i = load i64, ptr %.sroa.2.0..sroa_idx.i, align 8
  %5 = getelementptr inbounds nuw i8, ptr %2, i64 40
  %.sroa.0.0.copyload.i15 = load i64, ptr %5, align 8
  %.sroa.2.0..sroa_idx.i16 = getelementptr inbounds nuw i8, ptr %2, i64 48
  %.sroa.2.0.copyload.i17 = load i64, ptr %.sroa.2.0..sroa_idx.i16, align 8
  %6 = icmp sgt i64 %.sroa.0.0.copyload.i15, -1
  %7 = icmp sgt i64 %.sroa.0.0.copyload.i15, %.sroa.0.0.copyload.i
  %or.cond = select i1 %6, i1 %7, i1 false
  %8 = getelementptr inbounds nuw i8, ptr %0, i64 40
  store i64 %.sroa.0.0.copyload.i, ptr %8, align 8
  %9 = sub i64 %.sroa.0.0.copyload.i15, %.sroa.0.0.copyload.i
  %10 = add i64 %9, %.sroa.2.0.copyload.i17
  %11 = select i1 %or.cond, i64 %10, i64 %.sroa.2.0.copyload.i
  %12 = getelementptr inbounds nuw i8, ptr %0, i64 48
  store i64 %11, ptr %12, align 8
  ret void
}